; Function Attrs: nounwind uwtable
define ptr @l_Lake_instMinStdVer(ptr noundef %0, ptr noundef %1) local_unnamed_addr #0 {
  %3 = load ptr, ptr @l_Lake_instOrdStdVer, align 8, !tbaa !4
  %4 = ptrtoint ptr %1 to i64
  %5 = and i64 %4, 1
  %6 = icmp ne i64 %5, 0
  br i1 %6, label %lean_inc.exit10, label %7

7:                                                ; preds = %2
  %.val.i = load i32, ptr %1, align 4, !tbaa !8
  %8 = icmp sgt i32 %.val.i, 0
  br i1 %8, label %9, label %11, !prof !11

9:                                                ; preds = %7
  %10 = add nuw i32 %.val.i, 1
  store i32 %10, ptr %1, align 4, !tbaa !8
  br label %lean_inc.exit10

11:                                               ; preds = %7
  %.not.i14 = icmp eq i32 %.val.i, 0
  br i1 %.not.i14, label %lean_inc.exit10, label %12

12:                                               ; preds = %11
  tail call void @lean_inc_ref_cold(ptr noundef nonnull %1) #5
  br label %lean_inc.exit10

lean_inc.exit10:                                  ; preds = %12, %11, %9, %2
  %13 = ptrtoint ptr %0 to i64
  %14 = and i64 %13, 1
  %.not = icmp eq i64 %14, 0
  br i1 %.not, label %15, label %lean_inc.exit.thread

15:                                               ; preds = %lean_inc.exit10
  %.val.i15 = load i32, ptr %0, align 4, !tbaa !8
  %16 = icmp sgt i32 %.val.i15, 0
  br i1 %16, label %17, label %19, !prof !11

17:                                               ; preds = %15
  %18 = add nuw i32 %.val.i15, 1
  store i32 %18, ptr %0, align 4, !tbaa !8
  br label %lean_inc.exit

19:                                               ; preds = %15
  %.not.i16 = icmp eq i32 %.val.i15, 0
  br i1 %.not.i16, label %lean_inc.exit, label %20

20:                                               ; preds = %19
  tail call void @lean_inc_ref_cold(ptr noundef nonnull %0) #5
  br label %lean_inc.exit

lean_inc.exit:                                    ; preds = %20, %19, %17
  %21 = tail call zeroext i8 @l_Ord_instDecidableRelLe___rarg(ptr noundef %3, ptr noundef nonnull %0, ptr noundef %1) #5
  %22 = icmp eq i8 %21, 0
  br i1 %22, label %25, label %32

lean_inc.exit.thread:                             ; preds = %lean_inc.exit10
  %23 = tail call zeroext i8 @l_Ord_instDecidableRelLe___rarg(ptr noundef %3, ptr noundef %0, ptr noundef %1) #5
  %24 = icmp eq i8 %23, 0
  %brmerge = or i1 %6, %24
  %.mux = select i1 %24, ptr %1, ptr %0
  br i1 %brmerge, label %lean_dec.exit11, label %33

25:                                               ; preds = %lean_inc.exit
  %26 = load i32, ptr %0, align 4, !tbaa !8
  %27 = icmp sgt i32 %26, 1
  br i1 %27, label %28, label %30, !prof !11

28:                                               ; preds = %25
  %29 = add nsw i32 %26, -1
  store i32 %29, ptr %0, align 4, !tbaa !8
  br label %lean_dec.exit11

30:                                               ; preds = %25
  %.not.i = icmp eq i32 %26, 0
  br i1 %.not.i, label %lean_dec.exit11, label %31

31:                                               ; preds = %30
  tail call void @lean_dec_ref_cold(ptr noundef nonnull %0) #5
  br label %lean_dec.exit11

32:                                               ; preds = %lean_inc.exit
  br i1 %6, label %lean_dec.exit11, label %33

33:                                               ; preds = %lean_inc.exit.thread, %32
  %34 = load i32, ptr %1, align 4, !tbaa !8
  %35 = icmp sgt i32 %34, 1
  br i1 %35, label %36, label %38, !prof !11

36:                                               ; preds = %33
  %37 = add nsw i32 %34, -1
  store i32 %37, ptr %1, align 4, !tbaa !8
  br label %lean_dec.exit11

38:                                               ; preds = %33
  %.not.i12 = icmp eq i32 %34, 0
  br i1 %.not.i12, label %lean_dec.exit11, label %39

39:                                               ; preds = %38
  tail call void @lean_dec_ref_cold(ptr noundef nonnull %1) #5
  br label %lean_dec.exit11

lean_dec.exit11:                                  ; preds = %lean_inc.exit.thread, %32, %36, %38, %39, %28, %30, %31
  %.0 = phi ptr [ %1, %31 ], [ %1, %30 ], [ %1, %28 ], [ %0, %39 ], [ %0, %38 ], [ %0, %36 ], [ %0, %32 ], [ %.mux, %lean_inc.exit.thread ]
  ret ptr %.0
}